; ModuleID = '17/75.c'
source_filename = "17/75.c"
target datalayout = "e-m:e-p270:32:32-p271:32:32-p272:64:64-i64:64-f80:128-n8:16:32:64-S128"
target triple = "x86_64-pc-linux-gnu"

@.str = private unnamed_addr constant [3 x i8] c"%s\00", align 1
@.str.1 = private unnamed_addr constant [4 x i8] c"%s\0A\00", align 1

; Function Attrs: noinline nounwind uwtable
define dso_local i32 @main() #0 {
  %1 = alloca i32, align 4
  %2 = alloca [110 x i8], align 16
  %3 = alloca i32, align 4
  %4 = alloca i32, align 4
  %5 = alloca i32, align 4
  %6 = alloca i32, align 4
  store i32 0, i32* %1, align 4
  store i32 0, i32* %6, align 4
  br label %7

7:                                                ; preds = %167, %0
  %8 = getelementptr inbounds [110 x i8], [110 x i8]* %2, i64 0, i64 0
  %9 = call i32 (i8*, ...) @__isoc99_scanf(i8* getelementptr inbounds ([3 x i8], [3 x i8]* @.str, i64 0, i64 0), i8* %8)
  %10 = icmp ne i32 %9, -1
  br i1 %10, label %11, label %170

11:                                               ; preds = %7
  %12 = getelementptr inbounds [110 x i8], [110 x i8]* %2, i64 0, i64 0
  %13 = call i32 (i8*, ...) @printf(i8* getelementptr inbounds ([4 x i8], [4 x i8]* @.str.1, i64 0, i64 0), i8* %12)
  %14 = getelementptr inbounds [110 x i8], [110 x i8]* %2, i64 0, i64 0
  %15 = call i64 @strlen(i8* %14) #3
  %16 = trunc i64 %15 to i32
  store i32 %16, i32* %3, align 4
  store i32 0, i32* %4, align 4
  br label %17

17:                                               ; preds = %75, %11
  %18 = load i32, i32* %4, align 4
  %19 = load i32, i32* %3, align 4
  %20 = icmp slt i32 %18, %19
  br i1 %20, label %21, label %78

21:                                               ; preds = %17
  store i32 0, i32* %6, align 4
  %22 = load i32, i32* %4, align 4
  %23 = sext i32 %22 to i64
  %24 = getelementptr inbounds [110 x i8], [110 x i8]* %2, i64 0, i64 %23
  %25 = load i8, i8* %24, align 1
  %26 = sext i8 %25 to i32
  %27 = icmp eq i32 %26, 40
  br i1 %27, label %28, label %74

28:                                               ; preds = %21
  %29 = load i32, i32* %4, align 4
  store i32 %29, i32* %5, align 4
  br label %30

30:                                               ; preds = %59, %28
  %31 = load i32, i32* %5, align 4
  %32 = load i32, i32* %3, align 4
  %33 = icmp slt i32 %31, %32
  br i1 %33, label %34, label %62

34:                                               ; preds = %30
  %35 = load i32, i32* %5, align 4
  %36 = sext i32 %35 to i64
  %37 = getelementptr inbounds [110 x i8], [110 x i8]* %2, i64 0, i64 %36
  %38 = load i8, i8* %37, align 1
  %39 = sext i8 %38 to i32
  %40 = icmp eq i32 %39, 40
  br i1 %40, label %41, label %44

41:                                               ; preds = %34
  %42 = load i32, i32* %6, align 4
  %43 = add nsw i32 %42, 1
  store i32 %43, i32* %6, align 4
  br label %44

44:                                               ; preds = %41, %34
  %45 = load i32, i32* %5, align 4
  %46 = sext i32 %45 to i64
  %47 = getelementptr inbounds [110 x i8], [110 x i8]* %2, i64 0, i64 %46
  %48 = load i8, i8* %47, align 1
  %49 = sext i8 %48 to i32
  %50 = icmp eq i32 %49, 41
  br i1 %50, label %51, label %54

51:                                               ; preds = %44
  %52 = load i32, i32* %6, align 4
  %53 = add nsw i32 %52, -1
  store i32 %53, i32* %6, align 4
  br label %54

54:                                               ; preds = %51, %44
  %55 = load i32, i32* %6, align 4
  %56 = icmp eq i32 %55, 0
  br i1 %56, label %57, label %58

57:                                               ; preds = %54
  br label %62

58:                                               ; preds = %54
  br label %59

59:                                               ; preds = %58
  %60 = load i32, i32* %5, align 4
  %61 = add nsw i32 %60, 1
  store i32 %61, i32* %5, align 4
  br label %30

62:                                               ; preds = %57, %30
  %63 = load i32, i32* %6, align 4
  %64 = icmp ne i32 %63, 0
  br i1 %64, label %65, label %69

65:                                               ; preds = %62
  %66 = load i32, i32* %4, align 4
  %67 = sext i32 %66 to i64
  %68 = getelementptr inbounds [110 x i8], [110 x i8]* %2, i64 0, i64 %67
  store i8 36, i8* %68, align 1
  br label %73

69:                                               ; preds = %62
  %70 = load i32, i32* %4, align 4
  %71 = sext i32 %70 to i64
  %72 = getelementptr inbounds [110 x i8], [110 x i8]* %2, i64 0, i64 %71
  store i8 32, i8* %72, align 1
  br label %73

73:                                               ; preds = %69, %65
  br label %74

74:                                               ; preds = %73, %21
  br label %75

75:                                               ; preds = %74
  %76 = load i32, i32* %4, align 4
  %77 = add nsw i32 %76, 1
  store i32 %77, i32* %4, align 4
  br label %17

78:                                               ; preds = %17
  %79 = load i32, i32* %3, align 4
  %80 = sub nsw i32 %79, 1
  store i32 %80, i32* %4, align 4
  br label %81

81:                                               ; preds = %137, %78
  %82 = load i32, i32* %4, align 4
  %83 = icmp sge i32 %82, 0
  br i1 %83, label %84, label %140

84:                                               ; preds = %81
  store i32 0, i32* %6, align 4
  %85 = load i32, i32* %4, align 4
  %86 = sext i32 %85 to i64
  %87 = getelementptr inbounds [110 x i8], [110 x i8]* %2, i64 0, i64 %86
  %88 = load i8, i8* %87, align 1
  %89 = sext i8 %88 to i32
  %90 = icmp eq i32 %89, 41
  br i1 %90, label %91, label %136

91:                                               ; preds = %84
  %92 = load i32, i32* %4, align 4
  store i32 %92, i32* %5, align 4
  br label %93

93:                                               ; preds = %121, %91
  %94 = load i32, i32* %5, align 4
  %95 = icmp sge i32 %94, 0
  br i1 %95, label %96, label %124

96:                                               ; preds = %93
  %97 = load i32, i32* %5, align 4
  %98 = sext i32 %97 to i64
  %99 = getelementptr inbounds [110 x i8], [110 x i8]* %2, i64 0, i64 %98
  %100 = load i8, i8* %99, align 1
  %101 = sext i8 %100 to i32
  %102 = icmp eq i32 %101, 41
  br i1 %102, label %103, label %106

103:                                              ; preds = %96
  %104 = load i32, i32* %6, align 4
  %105 = add nsw i32 %104, 1
  store i32 %105, i32* %6, align 4
  br label %106

106:                                              ; preds = %103, %96
  %107 = load i32, i32* %5, align 4
  %108 = sext i32 %107 to i64
  %109 = getelementptr inbounds [110 x i8], [110 x i8]* %2, i64 0, i64 %108
  %110 = load i8, i8* %109, align 1
  %111 = sext i8 %110 to i32
  %112 = icmp eq i32 %111, 32
  br i1 %112, label %113, label %116

113:                                              ; preds = %106
  %114 = load i32, i32* %6, align 4
  %115 = add nsw i32 %114, -1
  store i32 %115, i32* %6, align 4
  br label %116

116:                                              ; preds = %113, %106
  %117 = load i32, i32* %6, align 4
  %118 = icmp eq i32 %117, 0
  br i1 %118, label %119, label %120

119:                                              ; preds = %116
  br label %124

120:                                              ; preds = %116
  br label %121

121:                                              ; preds = %120
  %122 = load i32, i32* %5, align 4
  %123 = add nsw i32 %122, -1
  store i32 %123, i32* %5, align 4
  br label %93

124:                                              ; preds = %119, %93
  %125 = load i32, i32* %6, align 4
  %126 = icmp ne i32 %125, 0
  br i1 %126, label %127, label %131

127:                                              ; preds = %124
  %128 = load i32, i32* %4, align 4
  %129 = sext i32 %128 to i64
  %130 = getelementptr inbounds [110 x i8], [110 x i8]* %2, i64 0, i64 %129
  store i8 63, i8* %130, align 1
  br label %135

131:                                              ; preds = %124
  %132 = load i32, i32* %4, align 4
  %133 = sext i32 %132 to i64
  %134 = getelementptr inbounds [110 x i8], [110 x i8]* %2, i64 0, i64 %133
  store i8 32, i8* %134, align 1
  br label %135

135:                                              ; preds = %131, %127
  br label %136

136:                                              ; preds = %135, %84
  br label %137

137:                                              ; preds = %136
  %138 = load i32, i32* %4, align 4
  %139 = add nsw i32 %138, -1
  store i32 %139, i32* %4, align 4
  br label %81

140:                                              ; preds = %81
  store i32 0, i32* %4, align 4
  br label %141

141:                                              ; preds = %164, %140
  %142 = load i32, i32* %4, align 4
  %143 = load i32, i32* %3, align 4
  %144 = icmp slt i32 %142, %143
  br i1 %144, label %145, label %167

145:                                              ; preds = %141
  %146 = load i32, i32* %4, align 4
  %147 = sext i32 %146 to i64
  %148 = getelementptr inbounds [110 x i8], [110 x i8]* %2, i64 0, i64 %147
  %149 = load i8, i8* %148, align 1
  %150 = sext i8 %149 to i32
  %151 = icmp ne i32 %150, 63
  br i1 %151, label %152, label %163

152:                                              ; preds = %145
  %153 = load i32, i32* %4, align 4
  %154 = sext i32 %153 to i64
  %155 = getelementptr inbounds [110 x i8], [110 x i8]* %2, i64 0, i64 %154
  %156 = load i8, i8* %155, align 1
  %157 = sext i8 %156 to i32
  %158 = icmp ne i32 %157, 36
  br i1 %158, label %159, label %163

159:                                              ; preds = %152
  %160 = load i32, i32* %4, align 4
  %161 = sext i32 %160 to i64
  %162 = getelementptr inbounds [110 x i8], [110 x i8]* %2, i64 0, i64 %161
  store i8 32, i8* %162, align 1
  br label %163

163:                                              ; preds = %159, %152, %145
  br label %164

164:                                              ; preds = %163
  %165 = load i32, i32* %4, align 4
  %166 = add nsw i32 %165, 1
  store i32 %166, i32* %4, align 4
  br label %141

167:                                              ; preds = %141
  %168 = getelementptr inbounds [110 x i8], [110 x i8]* %2, i64 0, i64 0
  %169 = call i32 @puts(i8* %168)
  br label %7

170:                                              ; preds = %7
  ret i32 0
}

declare dso_local i32 @__isoc99_scanf(i8*, ...) #1

declare dso_local i32 @printf(i8*, ...) #1

; Function Attrs: nounwind readonly
declare dso_local i64 @strlen(i8*) #2

declare dso_local i32 @puts(i8*) #1


!llvm.module.flags = !{!0}
!llvm.ident = !{!1}

!0 = !{i32 1, !"wchar_size", i32 4}
!1 = !{!"clang version 10.0.0-4ubuntu1 "}
